target datalayout = "e-m:e-p270:32:32-p271:32:32-p272:64:64-i64:64-i128:128-f80:128-n8:16:32:64-S128"
target triple = "x86_64-pc-linux-gnu"

%"class.boost::urls::grammar::lut_chars" = type { [4 x i64] }
%"struct.boost::urls::url_base::op_t" = type { ptr, ptr, ptr, ptr }

@_ZN5boost4urls6detailL11query_charsE = internal constant %"class.boost::urls::grammar::lut_chars" { [4 x i64] [i64 2122284544, i64 2147482880, i64 4286545408, i64 1073741312] }, align 8
@_ZN5boost4urls8url_base4op_tD1Ev = unnamed_addr alias void (ptr), ptr @_ZN5boost4urls8url_base4op_tD2Ev
@_ZN5boost4urls8url_base4op_tC1ERS1_PNS_4core17basic_string_viewIcEES7_ = unnamed_addr alias void (ptr, ptr, ptr, ptr), ptr @_ZN5boost4urls8url_base4op_tC2ERS1_PNS_4core17basic_string_viewIcEES7_

; Function Attrs: mustprogress nounwind uwtable
define noundef nonnull align 8 dereferenceable(216) ptr @_ZN5boost4urls8url_base15normalize_queryEv(ptr noundef nonnull align 8 dereferenceable(216) %0) #2 align 2 {
  %2 = alloca ptr, align 8
  %3 = alloca %"struct.boost::urls::url_base::op_t", align 8
  store ptr %0, ptr %2, align 8, !tbaa !7
  %4 = load ptr, ptr %2, align 8
  call void @llvm.lifetime.start.p0(i64 32, ptr %3) #9
  call void @_ZN5boost4urls8url_base4op_tC1ERS1_PNS_4core17basic_string_viewIcEES7_(ptr noundef nonnull align 8 dereferenceable(32) %3, ptr noundef nonnull align 8 dereferenceable(216) %4, ptr noundef null, ptr noundef null) #9
  call void @_ZN5boost4urls8url_base21normalize_octets_implINS0_7grammar9lut_charsEEEviRKT_RNS1_4op_tE(ptr noundef nonnull align 8 dereferenceable(216) %4, i32 noundef 5, ptr noundef nonnull align 8 dereferenceable(32) @_ZN5boost4urls6detailL11query_charsE, ptr noundef nonnull align 8 dereferenceable(32) %3) #9
  call void @_ZN5boost4urls8url_base4op_tD1Ev(ptr noundef nonnull align 8 dereferenceable(32) %3) #9
  call void @llvm.lifetime.end.p0(i64 32, ptr %3) #9
  ret ptr %4
}